; Function Attrs: mustprogress uwtable
define void @_ZN6icu_7517UCharsTrieElement5setToERKNS_13UnicodeStringEiRS1_R10UErrorCode(ptr nocapture noundef nonnull writeonly align 4 dereferenceable(8) %this, ptr noundef nonnull align 8 dereferenceable(64) %s, i32 noundef %val, ptr noundef nonnull align 8 dereferenceable(64) %strings, ptr nocapture noundef nonnull align 4 dereferenceable(4) %errorCode) local_unnamed_addr #0 align 2 {
entry:
  %srcChar.addr.i = alloca i16, align 2
  %0 = load i32, ptr %errorCode, align 4
  %cmp.i = icmp slt i32 %0, 1
  br i1 %cmp.i, label %if.end, label %return

if.end:                                           ; preds = %entry
  %fUnion.i.i = getelementptr inbounds i8, ptr %s, i64 8
  %1 = load i16, ptr %fUnion.i.i, align 8
  %cmp.i.i = icmp slt i16 %1, 0
  %2 = ashr i16 %1, 5
  %shr.i.i = sext i16 %2 to i32
  %fLength.i = getelementptr inbounds i8, ptr %s, i64 12
  %3 = load i32, ptr %fLength.i, align 4
  %cond.i = select i1 %cmp.i.i, i32 %3, i32 %shr.i.i
  %cmp = icmp sgt i32 %cond.i, 65535
  br i1 %cmp, label %if.then3, label %if.end4

if.then3:                                         ; preds = %if.end
  store i32 8, ptr %errorCode, align 4
  br label %return

if.end4:                                          ; preds = %if.end
  %fUnion.i.i6 = getelementptr inbounds i8, ptr %strings, i64 8
  %4 = load i16, ptr %fUnion.i.i6, align 8
  %cmp.i.i7 = icmp slt i16 %4, 0
  %5 = ashr i16 %4, 5
  %shr.i.i8 = sext i16 %5 to i32
  %fLength.i9 = getelementptr inbounds i8, ptr %strings, i64 12
  %6 = load i32, ptr %fLength.i9, align 4
  %cond.i10 = select i1 %cmp.i.i7, i32 %6, i32 %shr.i.i8
  store i32 %cond.i10, ptr %this, align 4
  %conv = trunc i32 %cond.i to i16
  call void @llvm.lifetime.start.p0(i64 2, ptr nonnull %srcChar.addr.i)
  store i16 %conv, ptr %srcChar.addr.i, align 2
  %call.i = call noundef nonnull align 8 dereferenceable(64) ptr @_ZN6icu_7513UnicodeString8doAppendEPKDsii(ptr noundef nonnull align 8 dereferenceable(64) %strings, ptr noundef nonnull %srcChar.addr.i, i32 noundef 0, i32 noundef 1)
  call void @llvm.lifetime.end.p0(i64 2, ptr nonnull %srcChar.addr.i)
  %value = getelementptr inbounds i8, ptr %this, i64 4
  store i32 %val, ptr %value, align 4
  %7 = load i16, ptr %fUnion.i.i, align 8
  %cmp.i.i.i = icmp slt i16 %7, 0
  %8 = ashr i16 %7, 5
  %shr.i.i.i = sext i16 %8 to i32
  %9 = load i32, ptr %fLength.i, align 4
  %cond.i.i = select i1 %cmp.i.i.i, i32 %9, i32 %shr.i.i.i
  %call2.i = call noundef nonnull align 8 dereferenceable(64) ptr @_ZN6icu_7513UnicodeString8doAppendERKS0_ii(ptr noundef nonnull align 8 dereferenceable(64) %strings, ptr noundef nonnull align 8 dereferenceable(64) %s, i32 noundef 0, i32 noundef %cond.i.i)
  br label %return

return:                                           ; preds = %entry, %if.end4, %if.then3
  ret void
}